target datalayout = "e-m:e-p270:32:32-p271:32:32-p272:64:64-i64:64-i128:128-f80:128-n8:16:32:64-S128"
target triple = "x86_64-pc-linux-gnu"

; Function Attrs: nounwind uwtable
define void @lv_image_header_cache_dump() #0 {
  %1 = alloca ptr, align 8
  %2 = alloca i32, align 4
  call void @llvm.lifetime.start.p0(i64 8, ptr %1) #5
  %3 = call ptr @lv_image_cache_iter_create()
  store ptr %3, ptr %1, align 8, !tbaa !47
  %4 = load ptr, ptr %1, align 8, !tbaa !47
  %5 = icmp eq ptr %4, null
  br i1 %5, label %6, label %7

6:                                                ; preds = %0
  store i32 1, ptr %2, align 4
  br label %15

7:                                                ; preds = %0
  br label %8

8:                                                ; preds = %7
  br label %9

9:                                                ; preds = %8
  br label %10

10:                                               ; preds = %9
  br label %11

11:                                               ; preds = %10
  br label %12

12:                                               ; preds = %11
  br label %13

13:                                               ; preds = %12
  %14 = load ptr, ptr %1, align 8, !tbaa !47
  call void @lv_iter_inspect(ptr noundef %14, ptr noundef @iter_inspect_cb)
  store i32 0, ptr %2, align 4
  br label %15

15:                                               ; preds = %13, %6
  call void @llvm.lifetime.end.p0(i64 8, ptr %1) #5
  %16 = load i32, ptr %2, align 4
  switch i32 %16, label %18 [
    i32 0, label %17
    i32 1, label %17
  ]

17:                                               ; preds = %15, %15
  ret void

18:                                               ; preds = %15
  unreachable
}