; Function Attrs: nounwind uwtable
define void @lv_image_header_cache_dump() local_unnamed_addr #0 {
  %1 = tail call ptr @lv_image_cache_iter_create() #4
  %2 = icmp eq ptr %1, null
  br i1 %2, label %4, label %3

3:                                                ; preds = %0
  tail call void @lv_iter_inspect(ptr noundef nonnull %1, ptr noundef nonnull @iter_inspect_cb) #4
  br label %4

4:                                                ; preds = %0, %3
  ret void
}